; Function Attrs: mustprogress uwtable
define hidden noundef zeroext i1 @_ZN10expr_delta9delta_dfsEjR10ref_vectorI4expr11ast_managerE(ptr nocapture noundef nonnull readonly align 8 dereferenceable(24) %this, i32 noundef %n, ptr noundef nonnull align 8 dereferenceable(16) %result) local_unnamed_addr #4 align 2 {
entry:
  %n.addr = alloca i32, align 4
  store i32 %n, ptr %n.addr, align 4
  %m_nodes.i = getelementptr inbounds i8, ptr %this, i64 16
  %0 = load ptr, ptr %m_nodes.i, align 8
  %cmp.i.i = icmp eq ptr %0, null
  br i1 %cmp.i.i, label %_ZNK15ref_vector_coreI4expr19ref_manager_wrapperIS0_11ast_managerEE4sizeEv.exit, label %if.end.i.i

if.end.i.i:                                       ; preds = %entry
  %arrayidx.i.i = getelementptr inbounds i8, ptr %0, i64 -4
  %1 = load i32, ptr %arrayidx.i.i, align 4
  br label %_ZNK15ref_vector_coreI4expr19ref_manager_wrapperIS0_11ast_managerEE4sizeEv.exit

_ZNK15ref_vector_coreI4expr19ref_manager_wrapperIS0_11ast_managerEE4sizeEv.exit: ; preds = %entry, %if.end.i.i
  %retval.0.i.i = phi i32 [ %1, %if.end.i.i ], [ 0, %entry ]
  %call4 = call noundef zeroext i1 @_ZN10expr_delta9delta_dfsERjjPKP4exprR10ref_vectorIS1_11ast_managerE(ptr noundef nonnull align 8 dereferenceable(24) %this, ptr noundef nonnull align 4 dereferenceable(4) %n.addr, i32 noundef %retval.0.i.i, ptr noundef %0, ptr noundef nonnull align 8 dereferenceable(16) %result)
  ret i1 %call4
}